target datalayout = "e-m:e-p270:32:32-p271:32:32-p272:64:64-i64:64-i128:128-f80:128-n8:16:32:64-S128"
target triple = "x86_64-pc-linux-gnu"

%struct.commands = type { ptr, ptr }

@.str = private unnamed_addr constant [11 x i8] c"cvs server\00", align 1
@.str.1 = private unnamed_addr constant [19 x i8] c"git-shell-commands\00", align 1
@.str.2 = private unnamed_addr constant [112 x i8] c"Interactive git shell is not enabled.\0Ahint: ~/git-shell-commands should exist and have read and execute access.\00", align 1
@.str.3 = private unnamed_addr constant [8 x i8] c"shell.c\00", align 1
@.str.4 = private unnamed_addr constant [3 x i8] c"-c\00", align 1
@.str.5 = private unnamed_addr constant [37 x i8] c"Run with no arguments or with -c cmd\00", align 1
@.str.6 = private unnamed_addr constant [4 x i8] c"git\00", align 1
@sane_ctype = external constant [256 x i8], align 16
@cmd_list = internal global [4 x %struct.commands] [%struct.commands { ptr @.str.25, ptr @do_generic_cmd }, %struct.commands { ptr @.str.26, ptr @do_generic_cmd }, %struct.commands { ptr @.str.27, ptr @do_generic_cmd }, %struct.commands zeroinitializer], align 16
@.str.7 = private unnamed_addr constant [26 x i8] c"unrecognized command '%s'\00", align 1
@.str.8 = private unnamed_addr constant [32 x i8] c"invalid command format '%s': %s\00", align 1
@.str.31 = private unnamed_addr constant [3 x i8] c"./\00", align 1
@.str.32 = private unnamed_addr constant [6 x i8] c"%s/%s\00", align 1

; Function Attrs: nounwind uwtable
define internal ptr @make_cmd(ptr noundef %0) #0 {
  %2 = alloca ptr, align 8
  store ptr %0, ptr %2, align 8, !tbaa !11
  %3 = load ptr, ptr %2, align 8, !tbaa !11
  %4 = call ptr (ptr, ...) @xstrfmt(ptr noundef @.str.32, ptr noundef @.str.1, ptr noundef %3)
  ret ptr %4
}

; Function Attrs: nounwind uwtable
define internal i32 @is_valid_cmd_name(ptr noundef %0) #0 {
  %2 = alloca ptr, align 8
  store ptr %0, ptr %2, align 8, !tbaa !11
  %3 = load ptr, ptr %2, align 8, !tbaa !11
  %4 = load ptr, ptr %2, align 8, !tbaa !11
  %5 = call i64 @strcspn(ptr noundef %4, ptr noundef @.str.31) #11
  %6 = getelementptr inbounds nuw i8, ptr %3, i64 %5
  %7 = load i8, ptr %6, align 1, !tbaa !13
  %8 = sext i8 %7 to i32
  %9 = icmp eq i32 %8, 0
  %10 = zext i1 %9 to i32
  ret i32 %10
}

; Function Attrs: nounwind uwtable
define dso_local i32 @cmd_main(i32 noundef %0, ptr noundef %1) #0 {
  %3 = alloca i32, align 4
  %4 = alloca i32, align 4
  %5 = alloca ptr, align 8
  %6 = alloca ptr, align 8
  %7 = alloca ptr, align 8
  %8 = alloca ptr, align 8
  %9 = alloca i32, align 4
  %10 = alloca i32, align 4
  %11 = alloca ptr, align 8
  %12 = alloca i32, align 4
  %13 = alloca ptr, align 8
  store i32 %0, ptr %4, align 4, !tbaa !4
  store ptr %1, ptr %5, align 8, !tbaa !8
  call void @llvm.lifetime.start.p0(i64 8, ptr %6) #10
  call void @llvm.lifetime.start.p0(i64 8, ptr %7) #10
  call void @llvm.lifetime.start.p0(i64 8, ptr %8) #10
  call void @llvm.lifetime.start.p0(i64 4, ptr %9) #10
  %14 = load i32, ptr %4, align 4, !tbaa !4
  %15 = icmp eq i32 %14, 2
  br i1 %15, label %16, label %25

16:                                               ; preds = %2
  %17 = load ptr, ptr %5, align 8, !tbaa !8
  %18 = getelementptr inbounds ptr, ptr %17, i64 1
  %19 = load ptr, ptr %18, align 8, !tbaa !11
  %20 = call i32 @strcmp(ptr noundef %19, ptr noundef @.str) #11
  %21 = icmp ne i32 %20, 0
  br i1 %21, label %25, label %22

22:                                               ; preds = %16
  %23 = load ptr, ptr %5, align 8, !tbaa !8
  %24 = getelementptr inbounds ptr, ptr %23, i32 -1
  store ptr %24, ptr %5, align 8, !tbaa !8
  br label %46

25:                                               ; preds = %16, %2
  %26 = load i32, ptr %4, align 4, !tbaa !4
  %27 = icmp eq i32 %26, 1
  br i1 %27, label %28, label %34

28:                                               ; preds = %25
  call void @cd_to_homedir()
  %29 = call i32 @access(ptr noundef @.str.1, i32 noundef 5) #10
  %30 = icmp eq i32 %29, -1
  br i1 %30, label %31, label %32

31:                                               ; preds = %28
  call void (ptr, ...) @die(ptr noundef @.str.2) #12
  unreachable

32:                                               ; preds = %28
  call void @run_shell()
  %33 = call i32 @common_exit(ptr noundef @.str.3, i32 noundef 182, i32 noundef 0)
  call void @exit(i32 noundef %33) #13
  unreachable

34:                                               ; preds = %25
  %35 = load i32, ptr %4, align 4, !tbaa !4
  %36 = icmp ne i32 %35, 3
  br i1 %36, label %43, label %37

37:                                               ; preds = %34
  %38 = load ptr, ptr %5, align 8, !tbaa !8
  %39 = getelementptr inbounds ptr, ptr %38, i64 1
  %40 = load ptr, ptr %39, align 8, !tbaa !11
  %41 = call i32 @strcmp(ptr noundef %40, ptr noundef @.str.4) #11
  %42 = icmp ne i32 %41, 0
  br i1 %42, label %43, label %44

43:                                               ; preds = %37, %34
  call void (ptr, ...) @die(ptr noundef @.str.5) #12
  unreachable

44:                                               ; preds = %37
  br label %45

45:                                               ; preds = %44
  br label %46

46:                                               ; preds = %45, %22
  %47 = load ptr, ptr %5, align 8, !tbaa !8
  %48 = getelementptr inbounds ptr, ptr %47, i64 2
  %49 = load ptr, ptr %48, align 8, !tbaa !11
  %50 = call ptr @xstrdup(ptr noundef %49)
  store ptr %50, ptr %6, align 8, !tbaa !11
  %51 = load ptr, ptr %6, align 8, !tbaa !11
  %52 = call i32 @strncmp(ptr noundef %51, ptr noundef @.str.6, i64 noundef 3) #11
  %53 = icmp ne i32 %52, 0
  br i1 %53, label %67, label %54

54:                                               ; preds = %46
  %55 = load ptr, ptr %6, align 8, !tbaa !11
  %56 = getelementptr inbounds i8, ptr %55, i64 3
  %57 = load i8, ptr %56, align 1, !tbaa !13
  %58 = zext i8 %57 to i64
  %59 = getelementptr inbounds nuw [256 x i8], ptr @sane_ctype, i64 0, i64 %58
  %60 = load i8, ptr %59, align 1, !tbaa !13
  %61 = zext i8 %60 to i32
  %62 = and i32 %61, 1
  %63 = icmp ne i32 %62, 0
  br i1 %63, label %64, label %67

64:                                               ; preds = %54
  %65 = load ptr, ptr %6, align 8, !tbaa !11
  %66 = getelementptr inbounds i8, ptr %65, i64 3
  store i8 45, ptr %66, align 1, !tbaa !13
  br label %67

67:                                               ; preds = %64, %54, %46
  store ptr @cmd_list, ptr %8, align 8, !tbaa !14
  br label %68

68:                                               ; preds = %114, %67
  %69 = load ptr, ptr %8, align 8, !tbaa !14
  %70 = getelementptr inbounds nuw %struct.commands, ptr %69, i32 0, i32 0
  %71 = load ptr, ptr %70, align 8, !tbaa !16
  %72 = icmp ne ptr %71, null
  br i1 %72, label %73, label %117

73:                                               ; preds = %68
  call void @llvm.lifetime.start.p0(i64 4, ptr %10) #10
  %74 = load ptr, ptr %8, align 8, !tbaa !14
  %75 = getelementptr inbounds nuw %struct.commands, ptr %74, i32 0, i32 0
  %76 = load ptr, ptr %75, align 8, !tbaa !16
  %77 = call i64 @strlen(ptr noundef %76) #11
  %78 = trunc i64 %77 to i32
  store i32 %78, ptr %10, align 4, !tbaa !4
  call void @llvm.lifetime.start.p0(i64 8, ptr %11) #10
  %79 = load ptr, ptr %8, align 8, !tbaa !14
  %80 = getelementptr inbounds nuw %struct.commands, ptr %79, i32 0, i32 0
  %81 = load ptr, ptr %80, align 8, !tbaa !16
  %82 = load ptr, ptr %6, align 8, !tbaa !11
  %83 = load i32, ptr %10, align 4, !tbaa !4
  %84 = sext i32 %83 to i64
  %85 = call i32 @strncmp(ptr noundef %81, ptr noundef %82, i64 noundef %84) #11
  %86 = icmp ne i32 %85, 0
  br i1 %86, label %87, label %88

87:                                               ; preds = %73
  store i32 4, ptr %12, align 4
  br label %112

88:                                               ; preds = %73
  store ptr null, ptr %11, align 8, !tbaa !11
  %89 = load ptr, ptr %6, align 8, !tbaa !11
  %90 = load i32, ptr %10, align 4, !tbaa !4
  %91 = sext i32 %90 to i64
  %92 = getelementptr inbounds i8, ptr %89, i64 %91
  %93 = load i8, ptr %92, align 1, !tbaa !13
  %94 = sext i8 %93 to i32
  switch i32 %94, label %102 [
    i32 0, label %95
    i32 32, label %96
  ]

95:                                               ; preds = %88
  store ptr null, ptr %11, align 8, !tbaa !11
  br label %103

96:                                               ; preds = %88
  %97 = load ptr, ptr %6, align 8, !tbaa !11
  %98 = load i32, ptr %10, align 4, !tbaa !4
  %99 = sext i32 %98 to i64
  %100 = getelementptr inbounds i8, ptr %97, i64 %99
  %101 = getelementptr inbounds i8, ptr %100, i64 1
  store ptr %101, ptr %11, align 8, !tbaa !11
  br label %103

102:                                              ; preds = %88
  store i32 4, ptr %12, align 4
  br label %112

103:                                              ; preds = %96, %95
  %104 = load ptr, ptr %8, align 8, !tbaa !14
  %105 = getelementptr inbounds nuw %struct.commands, ptr %104, i32 0, i32 1
  %106 = load ptr, ptr %105, align 8, !tbaa !18
  %107 = load ptr, ptr %8, align 8, !tbaa !14
  %108 = getelementptr inbounds nuw %struct.commands, ptr %107, i32 0, i32 0
  %109 = load ptr, ptr %108, align 8, !tbaa !16
  %110 = load ptr, ptr %11, align 8, !tbaa !11
  %111 = call i32 %106(ptr noundef %109, ptr noundef %110)
  store i32 %111, ptr %3, align 4
  store i32 1, ptr %12, align 4
  br label %112

112:                                              ; preds = %103, %102, %87
  call void @llvm.lifetime.end.p0(i64 8, ptr %11) #10
  call void @llvm.lifetime.end.p0(i64 4, ptr %10) #10
  %113 = load i32, ptr %12, align 4
  switch i32 %113, label %149 [
    i32 4, label %114
  ]

114:                                              ; preds = %112
  %115 = load ptr, ptr %8, align 8, !tbaa !14
  %116 = getelementptr inbounds nuw %struct.commands, ptr %115, i32 1
  store ptr %116, ptr %8, align 8, !tbaa !14
  br label %68, !llvm.loop !19

117:                                              ; preds = %68
  call void @cd_to_homedir()
  %118 = load ptr, ptr %6, align 8, !tbaa !11
  %119 = call i32 @split_cmdline(ptr noundef %118, ptr noundef %7)
  store i32 %119, ptr %9, align 4, !tbaa !4
  %120 = load i32, ptr %9, align 4, !tbaa !4
  %121 = icmp sge i32 %120, 0
  br i1 %121, label %122, label %142

122:                                              ; preds = %117
  %123 = load ptr, ptr %7, align 8, !tbaa !8
  %124 = getelementptr inbounds ptr, ptr %123, i64 0
  %125 = load ptr, ptr %124, align 8, !tbaa !11
  %126 = call i32 @is_valid_cmd_name(ptr noundef %125)
  %127 = icmp ne i32 %126, 0
  br i1 %127, label %128, label %136

128:                                              ; preds = %122
  call void @llvm.lifetime.start.p0(i64 8, ptr %13) #10
  %129 = load ptr, ptr %7, align 8, !tbaa !8
  %130 = getelementptr inbounds ptr, ptr %129, i64 0
  %131 = load ptr, ptr %130, align 8, !tbaa !11
  %132 = call ptr @make_cmd(ptr noundef %131)
  store ptr %132, ptr %13, align 8, !tbaa !11
  %133 = load ptr, ptr %13, align 8, !tbaa !11
  %134 = load ptr, ptr %7, align 8, !tbaa !8
  %135 = call i32 @execv(ptr noundef %133, ptr noundef %134) #10
  call void @llvm.lifetime.end.p0(i64 8, ptr %13) #10
  br label %136

136:                                              ; preds = %128, %122
  %137 = load ptr, ptr %6, align 8, !tbaa !11
  call void @free(ptr noundef %137) #10
  %138 = load ptr, ptr %7, align 8, !tbaa !8
  call void @free(ptr noundef %138) #10
  %139 = load ptr, ptr %5, align 8, !tbaa !8
  %140 = getelementptr inbounds ptr, ptr %139, i64 2
  %141 = load ptr, ptr %140, align 8, !tbaa !11
  call void (ptr, ...) @die(ptr noundef @.str.7, ptr noundef %141) #12
  unreachable

142:                                              ; preds = %117
  %143 = load ptr, ptr %6, align 8, !tbaa !11
  call void @free(ptr noundef %143) #10
  %144 = load ptr, ptr %5, align 8, !tbaa !8
  %145 = getelementptr inbounds ptr, ptr %144, i64 2
  %146 = load ptr, ptr %145, align 8, !tbaa !11
  %147 = load i32, ptr %9, align 4, !tbaa !4
  %148 = call ptr @split_cmdline_strerror(i32 noundef %147)
  call void (ptr, ...) @die(ptr noundef @.str.8, ptr noundef %146, ptr noundef %148) #12
  unreachable

149:                                              ; preds = %112
  call void @llvm.lifetime.end.p0(i64 4, ptr %9) #10
  call void @llvm.lifetime.end.p0(i64 8, ptr %8) #10
  call void @llvm.lifetime.end.p0(i64 8, ptr %7) #10
  call void @llvm.lifetime.end.p0(i64 8, ptr %6) #10
  %150 = load i32, ptr %3, align 4
  ret i32 %150
}