; Function Attrs: nounwind uwtable
define dso_local i32 @cmd_main(i32 noundef %0, ptr noundef readonly captures(none) %1) local_unnamed_addr #0 {
  %3 = alloca ptr, align 8
  call void @llvm.lifetime.start.p0(i64 8, ptr nonnull %3) #13
  switch i32 %0, label %.tail.thread [
    i32 2, label %4
    i32 1, label %10
    i32 3, label %sub_0
  ]

4:                                                ; preds = %2
  %5 = getelementptr inbounds nuw i8, ptr %1, i64 8
  %6 = load ptr, ptr %5, align 8, !tbaa !4
  %7 = tail call i32 @strcmp(ptr noundef nonnull dereferenceable(1) %6, ptr noundef nonnull dereferenceable(11) @.str) #14
  %.not = icmp eq i32 %7, 0
  br i1 %.not, label %8, label %.tail.thread

8:                                                ; preds = %4
  %9 = getelementptr inbounds i8, ptr %1, i64 -8
  br label %sub_051

10:                                               ; preds = %2
  tail call fastcc void @cd_to_homedir()
  %11 = tail call i32 @access(ptr noundef nonnull @.str.1, i32 noundef 5) #13
  %12 = icmp eq i32 %11, -1
  br i1 %12, label %13, label %14

13:                                               ; preds = %10
  tail call void (ptr, ...) @die(ptr noundef nonnull @.str.2) #15
  unreachable

14:                                               ; preds = %10
  tail call fastcc void @run_shell()
  %15 = tail call i32 @common_exit(ptr noundef nonnull @.str.3, i32 noundef 182, i32 noundef 0) #13
  tail call void @exit(i32 noundef %15) #15
  unreachable

sub_0:                                            ; preds = %2
  %16 = getelementptr inbounds nuw i8, ptr %1, i64 8
  %17 = load ptr, ptr %16, align 8, !tbaa !4
  %18 = load i8, ptr %17, align 1
  %.not63 = icmp eq i8 %18, 45
  br i1 %.not63, label %sub_1, label %.tail.thread

sub_1:                                            ; preds = %sub_0
  %19 = getelementptr inbounds nuw i8, ptr %17, i64 1
  %20 = load i8, ptr %19, align 1
  %.not64 = icmp eq i8 %20, 99
  br i1 %.not64, label %.tail, label %.tail.thread

.tail:                                            ; preds = %sub_1
  %21 = getelementptr inbounds nuw i8, ptr %17, i64 2
  %22 = load i8, ptr %21, align 1
  %23 = icmp eq i8 %22, 0
  br i1 %23, label %sub_051, label %.tail.thread

.tail.thread:                                     ; preds = %sub_1, %sub_0, %4, %2, %.tail
  tail call void (ptr, ...) @die(ptr noundef nonnull @.str.5) #15
  unreachable

sub_051:                                          ; preds = %.tail, %8
  %.034 = phi ptr [ %1, %.tail ], [ %9, %8 ]
  %24 = getelementptr inbounds nuw i8, ptr %.034, i64 16
  %25 = load ptr, ptr %24, align 8, !tbaa !4
  %26 = tail call ptr @xstrdup(ptr noundef %25) #13
  %27 = load i8, ptr %26, align 1
  %.not65 = icmp eq i8 %27, 103
  br i1 %.not65, label %sub_152, label %.tail50.thread.preheader

sub_152:                                          ; preds = %sub_051
  %28 = getelementptr inbounds nuw i8, ptr %26, i64 1
  %29 = load i8, ptr %28, align 1
  %.not66 = icmp eq i8 %29, 105
  br i1 %.not66, label %.tail50, label %.tail50.thread.preheader

.tail50:                                          ; preds = %sub_152
  %30 = getelementptr inbounds nuw i8, ptr %26, i64 2
  %31 = load i8, ptr %30, align 1
  %32 = icmp eq i8 %31, 116
  br i1 %32, label %33, label %.tail50.thread.preheader

33:                                               ; preds = %.tail50
  %34 = getelementptr inbounds nuw i8, ptr %26, i64 3
  %35 = load i8, ptr %34, align 1, !tbaa !9
  %36 = zext i8 %35 to i64
  %37 = getelementptr inbounds nuw [256 x i8], ptr @sane_ctype, i64 0, i64 %36
  %38 = load i8, ptr %37, align 1, !tbaa !9
  %39 = and i8 %38, 1
  %.not42 = icmp eq i8 %39, 0
  br i1 %.not42, label %.tail50.thread.preheader, label %40

40:                                               ; preds = %33
  store i8 45, ptr %34, align 1, !tbaa !9
  br label %.tail50.thread.preheader

.tail50.thread.preheader:                         ; preds = %sub_152, %sub_051, %40, %33, %.tail50
  br label %.tail50.thread

.tail50.thread:                                   ; preds = %.tail50.thread.preheader, %51
  %41 = phi ptr [ %53, %51 ], [ @.str.25, %.tail50.thread.preheader ]
  %.03562 = phi ptr [ %52, %51 ], [ @cmd_list, %.tail50.thread.preheader ]
  %42 = tail call i64 @strlen(ptr noundef nonnull dereferenceable(1) %41) #14
  %sext = shl i64 %42, 32
  %43 = ashr exact i64 %sext, 32
  %44 = tail call i32 @strncmp(ptr noundef nonnull %41, ptr noundef nonnull %26, i64 noundef %43) #14
  %.not45 = icmp eq i32 %44, 0
  br i1 %.not45, label %45, label %51

45:                                               ; preds = %.tail50.thread
  %46 = getelementptr inbounds i8, ptr %26, i64 %43
  %47 = load i8, ptr %46, align 1, !tbaa !9
  switch i8 %47, label %51 [
    i8 0, label %.loopexit
    i8 32, label %48
  ]

48:                                               ; preds = %45
  %49 = getelementptr inbounds i8, ptr %26, i64 %43
  %50 = getelementptr inbounds nuw i8, ptr %49, i64 1
  br label %.loopexit

51:                                               ; preds = %.tail50.thread, %45
  %52 = getelementptr inbounds nuw i8, ptr %.03562, i64 16
  %53 = load ptr, ptr %52, align 8, !tbaa !10
  %.not43 = icmp eq ptr %53, null
  br i1 %.not43, label %54, label %.tail50.thread, !llvm.loop !12

54:                                               ; preds = %51
  tail call fastcc void @cd_to_homedir()
  %55 = call i32 @split_cmdline(ptr noundef nonnull %26, ptr noundef nonnull %3) #13
  %56 = icmp sgt i32 %55, -1
  br i1 %56, label %57, label %70

57:                                               ; preds = %54
  %58 = load ptr, ptr %3, align 8, !tbaa !14
  %59 = load ptr, ptr %58, align 8, !tbaa !4
  %60 = call i64 @strcspn(ptr noundef readonly %59, ptr noundef nonnull @.str.31) #14
  %61 = getelementptr inbounds nuw i8, ptr %59, i64 %60
  %62 = load i8, ptr %61, align 1, !tbaa !9
  %.not49 = icmp eq i8 %62, 0
  br i1 %.not49, label %63, label %67

63:                                               ; preds = %57
  %64 = call ptr (ptr, ...) @xstrfmt(ptr noundef nonnull @.str.32, ptr noundef nonnull @.str.1, ptr noundef nonnull %59) #13
  %65 = load ptr, ptr %3, align 8, !tbaa !14
  %66 = call i32 @execv(ptr noundef %64, ptr noundef %65) #13
  %.pre = load ptr, ptr %3, align 8, !tbaa !14
  br label %67

67:                                               ; preds = %63, %57
  %68 = phi ptr [ %.pre, %63 ], [ %58, %57 ]
  call void @free(ptr noundef nonnull %26) #13
  call void @free(ptr noundef %68) #13
  %69 = load ptr, ptr %24, align 8, !tbaa !4
  call void (ptr, ...) @die(ptr noundef nonnull @.str.7, ptr noundef %69) #15
  unreachable

70:                                               ; preds = %54
  call void @free(ptr noundef nonnull %26) #13
  %71 = load ptr, ptr %24, align 8, !tbaa !4
  %72 = call ptr @split_cmdline_strerror(i32 noundef %55) #13
  call void (ptr, ...) @die(ptr noundef nonnull @.str.8, ptr noundef %71, ptr noundef %72) #15
  unreachable

.loopexit:                                        ; preds = %45, %48
  %.033 = phi ptr [ %50, %48 ], [ null, %45 ]
  %73 = getelementptr inbounds nuw i8, ptr %.03562, i64 8
  %74 = load ptr, ptr %73, align 8, !tbaa !16
  %75 = tail call i32 %74(ptr noundef nonnull %41, ptr noundef %.033) #13
  call void @llvm.lifetime.end.p0(i64 8, ptr nonnull %3) #13
  ret i32 %75
}